target datalayout = "e-m:e-p270:32:32-p271:32:32-p272:64:64-i64:64-i128:128-f80:128-n8:16:32:64-S128"
target triple = "x86_64-pc-linux-gnu"

%struct.PHP_XXH32_CTX = type { %struct.XXH_NAMESPACEXXH32_state_s }
%struct.XXH_NAMESPACEXXH32_state_s = type { i32, i32, [4 x i32], [4 x i32], i32, i32 }

; Function Attrs: nounwind uwtable
define internal i32 @XXH_read32(ptr noundef %0) #0 {
  %2 = alloca ptr, align 8
  %3 = alloca i32, align 4
  store ptr %0, ptr %2, align 8, !tbaa !4
  call void @llvm.lifetime.start.p0(i64 4, ptr %3) #14
  %4 = load ptr, ptr %2, align 8, !tbaa !4
  %5 = call ptr @XXH_memcpy(ptr noundef %3, ptr noundef %4, i64 noundef 4)
  %6 = load i32, ptr %3, align 4, !tbaa !20
  call void @llvm.lifetime.end.p0(i64 4, ptr %3) #14
  ret i32 %6
}

; Function Attrs: nounwind uwtable
define internal i32 @XXH32_round(i32 noundef %0, i32 noundef %1) #0 {
  %3 = alloca i32, align 4
  %4 = alloca i32, align 4
  store i32 %0, ptr %3, align 4, !tbaa !20
  store i32 %1, ptr %4, align 4, !tbaa !20
  %5 = load i32, ptr %4, align 4, !tbaa !20
  %6 = mul i32 %5, -2048144777
  %7 = load i32, ptr %3, align 4, !tbaa !20
  %8 = add i32 %7, %6
  store i32 %8, ptr %3, align 4, !tbaa !20
  %9 = load i32, ptr %3, align 4, !tbaa !20
  %10 = call i32 @llvm.fshl.i32(i32 %9, i32 %9, i32 13)
  store i32 %10, ptr %3, align 4, !tbaa !20
  %11 = load i32, ptr %3, align 4, !tbaa !20
  %12 = mul i32 %11, -1640531535
  store i32 %12, ptr %3, align 4, !tbaa !20
  %13 = load i32, ptr %3, align 4, !tbaa !20
  ret i32 %13
}

; Function Attrs: alwaysinline nounwind uwtable
define internal i32 @XXH_readLE32(ptr noundef %0) #4 {
  %2 = alloca ptr, align 8
  store ptr %0, ptr %2, align 8, !tbaa !4
  %3 = load ptr, ptr %2, align 8, !tbaa !4
  %4 = call i32 @XXH_read32(ptr noundef %3)
  ret i32 %4
}

; Function Attrs: nounwind uwtable
define internal ptr @XXH_memcpy(ptr noundef %0, ptr noundef %1, i64 noundef %2) #0 {
  %4 = alloca ptr, align 8
  %5 = alloca ptr, align 8
  %6 = alloca i64, align 8
  store ptr %0, ptr %4, align 8, !tbaa !4
  store ptr %1, ptr %5, align 8, !tbaa !4
  store i64 %2, ptr %6, align 8, !tbaa !15
  %7 = load ptr, ptr %4, align 8, !tbaa !4
  %8 = load ptr, ptr %5, align 8, !tbaa !4
  %9 = load i64, ptr %6, align 8, !tbaa !15
  call void @llvm.memcpy.p0.p0.i64(ptr align 1 %7, ptr align 1 %8, i64 %9, i1 false)
  ret ptr %7
}

; Function Attrs: inlinehint nounwind uwtable
define internal i32 @XXH_INLINE_XXH32_update(ptr noundef %0, ptr noundef %1, i64 noundef %2) #5 {
  %4 = alloca i32, align 4
  %5 = alloca ptr, align 8
  %6 = alloca ptr, align 8
  %7 = alloca i64, align 8
  %8 = alloca ptr, align 8
  %9 = alloca ptr, align 8
  %10 = alloca i32, align 4
  %11 = alloca ptr, align 8
  %12 = alloca ptr, align 8
  store ptr %0, ptr %5, align 8, !tbaa !33
  store ptr %1, ptr %6, align 8, !tbaa !4
  store i64 %2, ptr %7, align 8, !tbaa !15
  %13 = load ptr, ptr %6, align 8, !tbaa !4
  %14 = icmp eq ptr %13, null
  br i1 %14, label %15, label %16

15:                                               ; preds = %3
  store i32 0, ptr %4, align 4
  br label %233

16:                                               ; preds = %3
  call void @llvm.lifetime.start.p0(i64 8, ptr %8) #14
  %17 = load ptr, ptr %6, align 8, !tbaa !4
  store ptr %17, ptr %8, align 8, !tbaa !13
  call void @llvm.lifetime.start.p0(i64 8, ptr %9) #14
  %18 = load ptr, ptr %8, align 8, !tbaa !13
  %19 = load i64, ptr %7, align 8, !tbaa !15
  %20 = getelementptr inbounds nuw i8, ptr %18, i64 %19
  store ptr %20, ptr %9, align 8, !tbaa !13
  %21 = load i64, ptr %7, align 8, !tbaa !15
  %22 = trunc i64 %21 to i32
  %23 = load ptr, ptr %5, align 8, !tbaa !33
  %24 = getelementptr inbounds nuw %struct.XXH_NAMESPACEXXH32_state_s, ptr %23, i32 0, i32 0
  %25 = load i32, ptr %24, align 4, !tbaa !35
  %26 = add i32 %25, %22
  store i32 %26, ptr %24, align 4, !tbaa !35
  %27 = load i64, ptr %7, align 8, !tbaa !15
  %28 = icmp uge i64 %27, 16
  %29 = zext i1 %28 to i32
  %30 = load ptr, ptr %5, align 8, !tbaa !33
  %31 = getelementptr inbounds nuw %struct.XXH_NAMESPACEXXH32_state_s, ptr %30, i32 0, i32 0
  %32 = load i32, ptr %31, align 4, !tbaa !35
  %33 = icmp uge i32 %32, 16
  %34 = zext i1 %33 to i32
  %35 = or i32 %29, %34
  %36 = load ptr, ptr %5, align 8, !tbaa !33
  %37 = getelementptr inbounds nuw %struct.XXH_NAMESPACEXXH32_state_s, ptr %36, i32 0, i32 1
  %38 = load i32, ptr %37, align 4, !tbaa !36
  %39 = or i32 %38, %35
  store i32 %39, ptr %37, align 4, !tbaa !36
  %40 = load ptr, ptr %5, align 8, !tbaa !33
  %41 = getelementptr inbounds nuw %struct.XXH_NAMESPACEXXH32_state_s, ptr %40, i32 0, i32 4
  %42 = load i32, ptr %41, align 4, !tbaa !37
  %43 = zext i32 %42 to i64
  %44 = load i64, ptr %7, align 8, !tbaa !15
  %45 = add i64 %43, %44
  %46 = icmp ult i64 %45, 16
  br i1 %46, label %47, label %65

47:                                               ; preds = %16
  %48 = load ptr, ptr %5, align 8, !tbaa !33
  %49 = getelementptr inbounds nuw %struct.XXH_NAMESPACEXXH32_state_s, ptr %48, i32 0, i32 3
  %50 = getelementptr inbounds [4 x i32], ptr %49, i64 0, i64 0
  %51 = load ptr, ptr %5, align 8, !tbaa !33
  %52 = getelementptr inbounds nuw %struct.XXH_NAMESPACEXXH32_state_s, ptr %51, i32 0, i32 4
  %53 = load i32, ptr %52, align 4, !tbaa !37
  %54 = zext i32 %53 to i64
  %55 = getelementptr inbounds nuw i8, ptr %50, i64 %54
  %56 = load ptr, ptr %6, align 8, !tbaa !4
  %57 = load i64, ptr %7, align 8, !tbaa !15
  %58 = call ptr @XXH_memcpy(ptr noundef %55, ptr noundef %56, i64 noundef %57)
  %59 = load i64, ptr %7, align 8, !tbaa !15
  %60 = trunc i64 %59 to i32
  %61 = load ptr, ptr %5, align 8, !tbaa !33
  %62 = getelementptr inbounds nuw %struct.XXH_NAMESPACEXXH32_state_s, ptr %61, i32 0, i32 4
  %63 = load i32, ptr %62, align 4, !tbaa !37
  %64 = add i32 %63, %60
  store i32 %64, ptr %62, align 4, !tbaa !37
  store i32 0, ptr %4, align 4
  store i32 1, ptr %10, align 4
  br label %230

65:                                               ; preds = %16
  %66 = load ptr, ptr %5, align 8, !tbaa !33
  %67 = getelementptr inbounds nuw %struct.XXH_NAMESPACEXXH32_state_s, ptr %66, i32 0, i32 4
  %68 = load i32, ptr %67, align 4, !tbaa !37
  %69 = icmp ne i32 %68, 0
  br i1 %69, label %70, label %144

70:                                               ; preds = %65
  %71 = load ptr, ptr %5, align 8, !tbaa !33
  %72 = getelementptr inbounds nuw %struct.XXH_NAMESPACEXXH32_state_s, ptr %71, i32 0, i32 3
  %73 = getelementptr inbounds [4 x i32], ptr %72, i64 0, i64 0
  %74 = load ptr, ptr %5, align 8, !tbaa !33
  %75 = getelementptr inbounds nuw %struct.XXH_NAMESPACEXXH32_state_s, ptr %74, i32 0, i32 4
  %76 = load i32, ptr %75, align 4, !tbaa !37
  %77 = zext i32 %76 to i64
  %78 = getelementptr inbounds nuw i8, ptr %73, i64 %77
  %79 = load ptr, ptr %6, align 8, !tbaa !4
  %80 = load ptr, ptr %5, align 8, !tbaa !33
  %81 = getelementptr inbounds nuw %struct.XXH_NAMESPACEXXH32_state_s, ptr %80, i32 0, i32 4
  %82 = load i32, ptr %81, align 4, !tbaa !37
  %83 = sub i32 16, %82
  %84 = zext i32 %83 to i64
  %85 = call ptr @XXH_memcpy(ptr noundef %78, ptr noundef %79, i64 noundef %84)
  call void @llvm.lifetime.start.p0(i64 8, ptr %11) #14
  %86 = load ptr, ptr %5, align 8, !tbaa !33
  %87 = getelementptr inbounds nuw %struct.XXH_NAMESPACEXXH32_state_s, ptr %86, i32 0, i32 3
  %88 = getelementptr inbounds [4 x i32], ptr %87, i64 0, i64 0
  store ptr %88, ptr %11, align 8, !tbaa !38
  %89 = load ptr, ptr %5, align 8, !tbaa !33
  %90 = getelementptr inbounds nuw %struct.XXH_NAMESPACEXXH32_state_s, ptr %89, i32 0, i32 2
  %91 = getelementptr inbounds [4 x i32], ptr %90, i64 0, i64 0
  %92 = load i32, ptr %91, align 4, !tbaa !20
  %93 = load ptr, ptr %11, align 8, !tbaa !38
  %94 = call i32 @XXH_readLE32(ptr noundef %93)
  %95 = call i32 @XXH32_round(i32 noundef %92, i32 noundef %94)
  %96 = load ptr, ptr %5, align 8, !tbaa !33
  %97 = getelementptr inbounds nuw %struct.XXH_NAMESPACEXXH32_state_s, ptr %96, i32 0, i32 2
  %98 = getelementptr inbounds [4 x i32], ptr %97, i64 0, i64 0
  store i32 %95, ptr %98, align 4, !tbaa !20
  %99 = load ptr, ptr %11, align 8, !tbaa !38
  %100 = getelementptr inbounds nuw i32, ptr %99, i32 1
  store ptr %100, ptr %11, align 8, !tbaa !38
  %101 = load ptr, ptr %5, align 8, !tbaa !33
  %102 = getelementptr inbounds nuw %struct.XXH_NAMESPACEXXH32_state_s, ptr %101, i32 0, i32 2
  %103 = getelementptr inbounds [4 x i32], ptr %102, i64 0, i64 1
  %104 = load i32, ptr %103, align 4, !tbaa !20
  %105 = load ptr, ptr %11, align 8, !tbaa !38
  %106 = call i32 @XXH_readLE32(ptr noundef %105)
  %107 = call i32 @XXH32_round(i32 noundef %104, i32 noundef %106)
  %108 = load ptr, ptr %5, align 8, !tbaa !33
  %109 = getelementptr inbounds nuw %struct.XXH_NAMESPACEXXH32_state_s, ptr %108, i32 0, i32 2
  %110 = getelementptr inbounds [4 x i32], ptr %109, i64 0, i64 1
  store i32 %107, ptr %110, align 4, !tbaa !20
  %111 = load ptr, ptr %11, align 8, !tbaa !38
  %112 = getelementptr inbounds nuw i32, ptr %111, i32 1
  store ptr %112, ptr %11, align 8, !tbaa !38
  %113 = load ptr, ptr %5, align 8, !tbaa !33
  %114 = getelementptr inbounds nuw %struct.XXH_NAMESPACEXXH32_state_s, ptr %113, i32 0, i32 2
  %115 = getelementptr inbounds [4 x i32], ptr %114, i64 0, i64 2
  %116 = load i32, ptr %115, align 4, !tbaa !20
  %117 = load ptr, ptr %11, align 8, !tbaa !38
  %118 = call i32 @XXH_readLE32(ptr noundef %117)
  %119 = call i32 @XXH32_round(i32 noundef %116, i32 noundef %118)
  %120 = load ptr, ptr %5, align 8, !tbaa !33
  %121 = getelementptr inbounds nuw %struct.XXH_NAMESPACEXXH32_state_s, ptr %120, i32 0, i32 2
  %122 = getelementptr inbounds [4 x i32], ptr %121, i64 0, i64 2
  store i32 %119, ptr %122, align 4, !tbaa !20
  %123 = load ptr, ptr %11, align 8, !tbaa !38
  %124 = getelementptr inbounds nuw i32, ptr %123, i32 1
  store ptr %124, ptr %11, align 8, !tbaa !38
  %125 = load ptr, ptr %5, align 8, !tbaa !33
  %126 = getelementptr inbounds nuw %struct.XXH_NAMESPACEXXH32_state_s, ptr %125, i32 0, i32 2
  %127 = getelementptr inbounds [4 x i32], ptr %126, i64 0, i64 3
  %128 = load i32, ptr %127, align 4, !tbaa !20
  %129 = load ptr, ptr %11, align 8, !tbaa !38
  %130 = call i32 @XXH_readLE32(ptr noundef %129)
  %131 = call i32 @XXH32_round(i32 noundef %128, i32 noundef %130)
  %132 = load ptr, ptr %5, align 8, !tbaa !33
  %133 = getelementptr inbounds nuw %struct.XXH_NAMESPACEXXH32_state_s, ptr %132, i32 0, i32 2
  %134 = getelementptr inbounds [4 x i32], ptr %133, i64 0, i64 3
  store i32 %131, ptr %134, align 4, !tbaa !20
  call void @llvm.lifetime.end.p0(i64 8, ptr %11) #14
  %135 = load ptr, ptr %5, align 8, !tbaa !33
  %136 = getelementptr inbounds nuw %struct.XXH_NAMESPACEXXH32_state_s, ptr %135, i32 0, i32 4
  %137 = load i32, ptr %136, align 4, !tbaa !37
  %138 = sub i32 16, %137
  %139 = load ptr, ptr %8, align 8, !tbaa !13
  %140 = zext i32 %138 to i64
  %141 = getelementptr inbounds nuw i8, ptr %139, i64 %140
  store ptr %141, ptr %8, align 8, !tbaa !13
  %142 = load ptr, ptr %5, align 8, !tbaa !33
  %143 = getelementptr inbounds nuw %struct.XXH_NAMESPACEXXH32_state_s, ptr %142, i32 0, i32 4
  store i32 0, ptr %143, align 4, !tbaa !37
  br label %144

144:                                              ; preds = %70, %65
  %145 = load ptr, ptr %8, align 8, !tbaa !13
  %146 = load ptr, ptr %9, align 8, !tbaa !13
  %147 = getelementptr inbounds i8, ptr %146, i64 -16
  %148 = icmp ule ptr %145, %147
  br i1 %148, label %149, label %206

149:                                              ; preds = %144
  call void @llvm.lifetime.start.p0(i64 8, ptr %12) #14
  %150 = load ptr, ptr %9, align 8, !tbaa !13
  %151 = getelementptr inbounds i8, ptr %150, i64 -16
  store ptr %151, ptr %12, align 8, !tbaa !13
  br label %152

152:                                              ; preds = %201, %149
  %153 = load ptr, ptr %5, align 8, !tbaa !33
  %154 = getelementptr inbounds nuw %struct.XXH_NAMESPACEXXH32_state_s, ptr %153, i32 0, i32 2
  %155 = getelementptr inbounds [4 x i32], ptr %154, i64 0, i64 0
  %156 = load i32, ptr %155, align 4, !tbaa !20
  %157 = load ptr, ptr %8, align 8, !tbaa !13
  %158 = call i32 @XXH_readLE32(ptr noundef %157)
  %159 = call i32 @XXH32_round(i32 noundef %156, i32 noundef %158)
  %160 = load ptr, ptr %5, align 8, !tbaa !33
  %161 = getelementptr inbounds nuw %struct.XXH_NAMESPACEXXH32_state_s, ptr %160, i32 0, i32 2
  %162 = getelementptr inbounds [4 x i32], ptr %161, i64 0, i64 0
  store i32 %159, ptr %162, align 4, !tbaa !20
  %163 = load ptr, ptr %8, align 8, !tbaa !13
  %164 = getelementptr inbounds i8, ptr %163, i64 4
  store ptr %164, ptr %8, align 8, !tbaa !13
  %165 = load ptr, ptr %5, align 8, !tbaa !33
  %166 = getelementptr inbounds nuw %struct.XXH_NAMESPACEXXH32_state_s, ptr %165, i32 0, i32 2
  %167 = getelementptr inbounds [4 x i32], ptr %166, i64 0, i64 1
  %168 = load i32, ptr %167, align 4, !tbaa !20
  %169 = load ptr, ptr %8, align 8, !tbaa !13
  %170 = call i32 @XXH_readLE32(ptr noundef %169)
  %171 = call i32 @XXH32_round(i32 noundef %168, i32 noundef %170)
  %172 = load ptr, ptr %5, align 8, !tbaa !33
  %173 = getelementptr inbounds nuw %struct.XXH_NAMESPACEXXH32_state_s, ptr %172, i32 0, i32 2
  %174 = getelementptr inbounds [4 x i32], ptr %173, i64 0, i64 1
  store i32 %171, ptr %174, align 4, !tbaa !20
  %175 = load ptr, ptr %8, align 8, !tbaa !13
  %176 = getelementptr inbounds i8, ptr %175, i64 4
  store ptr %176, ptr %8, align 8, !tbaa !13
  %177 = load ptr, ptr %5, align 8, !tbaa !33
  %178 = getelementptr inbounds nuw %struct.XXH_NAMESPACEXXH32_state_s, ptr %177, i32 0, i32 2
  %179 = getelementptr inbounds [4 x i32], ptr %178, i64 0, i64 2
  %180 = load i32, ptr %179, align 4, !tbaa !20
  %181 = load ptr, ptr %8, align 8, !tbaa !13
  %182 = call i32 @XXH_readLE32(ptr noundef %181)
  %183 = call i32 @XXH32_round(i32 noundef %180, i32 noundef %182)
  %184 = load ptr, ptr %5, align 8, !tbaa !33
  %185 = getelementptr inbounds nuw %struct.XXH_NAMESPACEXXH32_state_s, ptr %184, i32 0, i32 2
  %186 = getelementptr inbounds [4 x i32], ptr %185, i64 0, i64 2
  store i32 %183, ptr %186, align 4, !tbaa !20
  %187 = load ptr, ptr %8, align 8, !tbaa !13
  %188 = getelementptr inbounds i8, ptr %187, i64 4
  store ptr %188, ptr %8, align 8, !tbaa !13
  %189 = load ptr, ptr %5, align 8, !tbaa !33
  %190 = getelementptr inbounds nuw %struct.XXH_NAMESPACEXXH32_state_s, ptr %189, i32 0, i32 2
  %191 = getelementptr inbounds [4 x i32], ptr %190, i64 0, i64 3
  %192 = load i32, ptr %191, align 4, !tbaa !20
  %193 = load ptr, ptr %8, align 8, !tbaa !13
  %194 = call i32 @XXH_readLE32(ptr noundef %193)
  %195 = call i32 @XXH32_round(i32 noundef %192, i32 noundef %194)
  %196 = load ptr, ptr %5, align 8, !tbaa !33
  %197 = getelementptr inbounds nuw %struct.XXH_NAMESPACEXXH32_state_s, ptr %196, i32 0, i32 2
  %198 = getelementptr inbounds [4 x i32], ptr %197, i64 0, i64 3
  store i32 %195, ptr %198, align 4, !tbaa !20
  %199 = load ptr, ptr %8, align 8, !tbaa !13
  %200 = getelementptr inbounds i8, ptr %199, i64 4
  store ptr %200, ptr %8, align 8, !tbaa !13
  br label %201

201:                                              ; preds = %152
  %202 = load ptr, ptr %8, align 8, !tbaa !13
  %203 = load ptr, ptr %12, align 8, !tbaa !13
  %204 = icmp ule ptr %202, %203
  br i1 %204, label %152, label %205

205:                                              ; preds = %201
  call void @llvm.lifetime.end.p0(i64 8, ptr %12) #14
  br label %206

206:                                              ; preds = %205, %144
  %207 = load ptr, ptr %8, align 8, !tbaa !13
  %208 = load ptr, ptr %9, align 8, !tbaa !13
  %209 = icmp ult ptr %207, %208
  br i1 %209, label %210, label %229

210:                                              ; preds = %206
  %211 = load ptr, ptr %5, align 8, !tbaa !33
  %212 = getelementptr inbounds nuw %struct.XXH_NAMESPACEXXH32_state_s, ptr %211, i32 0, i32 3
  %213 = getelementptr inbounds [4 x i32], ptr %212, i64 0, i64 0
  %214 = load ptr, ptr %8, align 8, !tbaa !13
  %215 = load ptr, ptr %9, align 8, !tbaa !13
  %216 = load ptr, ptr %8, align 8, !tbaa !13
  %217 = ptrtoint ptr %215 to i64
  %218 = ptrtoint ptr %216 to i64
  %219 = sub i64 %217, %218
  %220 = call ptr @XXH_memcpy(ptr noundef %213, ptr noundef %214, i64 noundef %219)
  %221 = load ptr, ptr %9, align 8, !tbaa !13
  %222 = load ptr, ptr %8, align 8, !tbaa !13
  %223 = ptrtoint ptr %221 to i64
  %224 = ptrtoint ptr %222 to i64
  %225 = sub i64 %223, %224
  %226 = trunc i64 %225 to i32
  %227 = load ptr, ptr %5, align 8, !tbaa !33
  %228 = getelementptr inbounds nuw %struct.XXH_NAMESPACEXXH32_state_s, ptr %227, i32 0, i32 4
  store i32 %226, ptr %228, align 4, !tbaa !37
  br label %229

229:                                              ; preds = %210, %206
  store i32 0, ptr %10, align 4
  br label %230

230:                                              ; preds = %229, %47
  call void @llvm.lifetime.end.p0(i64 8, ptr %9) #14
  call void @llvm.lifetime.end.p0(i64 8, ptr %8) #14
  %231 = load i32, ptr %10, align 4
  switch i32 %231, label %235 [
    i32 0, label %232
    i32 1, label %233
  ]

232:                                              ; preds = %230
  store i32 0, ptr %4, align 4
  br label %233

233:                                              ; preds = %232, %230, %15
  %234 = load i32, ptr %4, align 4
  ret i32 %234

235:                                              ; preds = %230
  unreachable
}

; Function Attrs: nounwind uwtable
define dso_local void @PHP_XXH32Update(ptr noundef %0, ptr noundef %1, i64 noundef %2) #0 {
  %4 = alloca ptr, align 8
  %5 = alloca ptr, align 8
  %6 = alloca i64, align 8
  store ptr %0, ptr %4, align 8, !tbaa !4
  store ptr %1, ptr %5, align 8, !tbaa !13
  store i64 %2, ptr %6, align 8, !tbaa !15
  %7 = load ptr, ptr %4, align 8, !tbaa !4
  %8 = getelementptr inbounds nuw %struct.PHP_XXH32_CTX, ptr %7, i32 0, i32 0
  %9 = load ptr, ptr %5, align 8, !tbaa !13
  %10 = load i64, ptr %6, align 8, !tbaa !15
  %11 = call i32 @XXH_INLINE_XXH32_update(ptr noundef %8, ptr noundef %9, i64 noundef %10)
  ret void
}