; Function Attrs: nofree norecurse nosync nounwind memory(argmem: readwrite) uwtable
define dso_local void @PHP_XXH32Update(ptr noundef captures(none) %0, ptr noundef %1, i64 noundef %2) #1 {
  %4 = icmp eq ptr %1, null
  br i1 %4, label %XXH_INLINE_XXH32_update.exit, label %5

5:                                                ; preds = %3
  %6 = getelementptr inbounds nuw i8, ptr %1, i64 %2
  %7 = trunc i64 %2 to i32
  %8 = load i32, ptr %0, align 4, !tbaa !8
  %9 = add i32 %8, %7
  store i32 %9, ptr %0, align 4, !tbaa !8
  %10 = icmp ugt i64 %2, 15
  %11 = icmp ugt i32 %9, 15
  %12 = or i1 %10, %11
  %13 = zext i1 %12 to i32
  %14 = getelementptr inbounds nuw i8, ptr %0, i64 4
  %15 = load i32, ptr %14, align 4, !tbaa !11
  %16 = or i32 %15, %13
  store i32 %16, ptr %14, align 4, !tbaa !11
  %17 = getelementptr inbounds nuw i8, ptr %0, i64 40
  %18 = load i32, ptr %17, align 4, !tbaa !12
  %19 = zext i32 %18 to i64
  %20 = add i64 %2, %19
  %21 = icmp ult i64 %20, 16
  br i1 %21, label %22, label %27

22:                                               ; preds = %5
  %23 = getelementptr inbounds nuw i8, ptr %0, i64 24
  %24 = getelementptr inbounds nuw i8, ptr %23, i64 %19
  tail call void @llvm.memcpy.p0.p0.i64(ptr nonnull align 1 %24, ptr nonnull readonly align 1 %1, i64 %2, i1 false)
  %25 = load i32, ptr %17, align 4, !tbaa !12
  %26 = add i32 %25, %7
  br label %.sink.split.i

27:                                               ; preds = %5
  %.not.i = icmp eq i32 %18, 0
  br i1 %.not.i, label %64, label %28

28:                                               ; preds = %27
  %29 = getelementptr inbounds nuw i8, ptr %0, i64 24
  %30 = getelementptr inbounds nuw i8, ptr %29, i64 %19
  %31 = sub i32 16, %18
  %32 = zext i32 %31 to i64
  tail call void @llvm.memcpy.p0.p0.i64(ptr nonnull align 1 %30, ptr nonnull readonly align 1 %1, i64 %32, i1 false)
  %33 = getelementptr inbounds nuw i8, ptr %0, i64 8
  %34 = load i32, ptr %33, align 4, !tbaa !13
  %.0.copyload.i.i = load i32, ptr %29, align 1
  %35 = mul i32 %.0.copyload.i.i, -2048144777
  %36 = add i32 %35, %34
  %37 = tail call i32 @llvm.fshl.i32(i32 %36, i32 %36, i32 13)
  %38 = mul i32 %37, -1640531535
  store i32 %38, ptr %33, align 4, !tbaa !13
  %39 = getelementptr inbounds nuw i8, ptr %0, i64 28
  %40 = getelementptr inbounds nuw i8, ptr %0, i64 12
  %41 = load i32, ptr %40, align 4, !tbaa !13
  %.0.copyload.i81.i = load i32, ptr %39, align 1
  %42 = mul i32 %.0.copyload.i81.i, -2048144777
  %43 = add i32 %42, %41
  %44 = tail call i32 @llvm.fshl.i32(i32 %43, i32 %43, i32 13)
  %45 = mul i32 %44, -1640531535
  store i32 %45, ptr %40, align 4, !tbaa !13
  %46 = getelementptr inbounds nuw i8, ptr %0, i64 32
  %47 = getelementptr inbounds nuw i8, ptr %0, i64 16
  %48 = load i32, ptr %47, align 4, !tbaa !13
  %.0.copyload.i82.i = load i32, ptr %46, align 1
  %49 = mul i32 %.0.copyload.i82.i, -2048144777
  %50 = add i32 %49, %48
  %51 = tail call i32 @llvm.fshl.i32(i32 %50, i32 %50, i32 13)
  %52 = mul i32 %51, -1640531535
  store i32 %52, ptr %47, align 4, !tbaa !13
  %53 = getelementptr inbounds nuw i8, ptr %0, i64 36
  %54 = getelementptr inbounds nuw i8, ptr %0, i64 20
  %55 = load i32, ptr %54, align 4, !tbaa !13
  %.0.copyload.i83.i = load i32, ptr %53, align 1
  %56 = mul i32 %.0.copyload.i83.i, -2048144777
  %57 = add i32 %56, %55
  %58 = tail call i32 @llvm.fshl.i32(i32 %57, i32 %57, i32 13)
  %59 = mul i32 %58, -1640531535
  store i32 %59, ptr %54, align 4, !tbaa !13
  %60 = load i32, ptr %17, align 4, !tbaa !12
  %61 = sub i32 16, %60
  %62 = zext i32 %61 to i64
  %63 = getelementptr inbounds nuw i8, ptr %1, i64 %62
  store i32 0, ptr %17, align 4, !tbaa !12
  br label %64

64:                                               ; preds = %28, %27
  %.072.i = phi ptr [ %63, %28 ], [ %1, %27 ]
  %65 = getelementptr inbounds i8, ptr %6, i64 -16
  %.not79.i = icmp ugt ptr %.072.i, %65
  br i1 %.not79.i, label %.loopexit.i, label %.preheader.i

.preheader.i:                                     ; preds = %64
  %66 = getelementptr inbounds nuw i8, ptr %0, i64 8
  %67 = getelementptr inbounds nuw i8, ptr %0, i64 12
  %68 = getelementptr inbounds nuw i8, ptr %0, i64 16
  %69 = getelementptr inbounds nuw i8, ptr %0, i64 20
  %.promoted.i = load i32, ptr %66, align 4, !tbaa !13
  %.promoted88.i = load i32, ptr %67, align 4, !tbaa !13
  %.promoted89.i = load i32, ptr %68, align 4, !tbaa !13
  %.promoted90.i = load i32, ptr %69, align 4, !tbaa !13
  br label %70

70:                                               ; preds = %70, %.preheader.i
  %71 = phi i32 [ %93, %70 ], [ %.promoted90.i, %.preheader.i ]
  %72 = phi i32 [ %88, %70 ], [ %.promoted89.i, %.preheader.i ]
  %73 = phi i32 [ %83, %70 ], [ %.promoted88.i, %.preheader.i ]
  %74 = phi i32 [ %78, %70 ], [ %.promoted.i, %.preheader.i ]
  %.2.i = phi ptr [ %94, %70 ], [ %.072.i, %.preheader.i ]
  %.0.copyload.i84.i = load i32, ptr %.2.i, align 1
  %75 = mul i32 %.0.copyload.i84.i, -2048144777
  %76 = add i32 %75, %74
  %77 = tail call i32 @llvm.fshl.i32(i32 %76, i32 %76, i32 13)
  %78 = mul i32 %77, -1640531535
  store i32 %78, ptr %66, align 4, !tbaa !13
  %79 = getelementptr inbounds nuw i8, ptr %.2.i, i64 4
  %.0.copyload.i85.i = load i32, ptr %79, align 1
  %80 = mul i32 %.0.copyload.i85.i, -2048144777
  %81 = add i32 %80, %73
  %82 = tail call i32 @llvm.fshl.i32(i32 %81, i32 %81, i32 13)
  %83 = mul i32 %82, -1640531535
  store i32 %83, ptr %67, align 4, !tbaa !13
  %84 = getelementptr inbounds nuw i8, ptr %.2.i, i64 8
  %.0.copyload.i86.i = load i32, ptr %84, align 1
  %85 = mul i32 %.0.copyload.i86.i, -2048144777
  %86 = add i32 %85, %72
  %87 = tail call i32 @llvm.fshl.i32(i32 %86, i32 %86, i32 13)
  %88 = mul i32 %87, -1640531535
  store i32 %88, ptr %68, align 4, !tbaa !13
  %89 = getelementptr inbounds nuw i8, ptr %.2.i, i64 12
  %.0.copyload.i87.i = load i32, ptr %89, align 1
  %90 = mul i32 %.0.copyload.i87.i, -2048144777
  %91 = add i32 %90, %71
  %92 = tail call i32 @llvm.fshl.i32(i32 %91, i32 %91, i32 13)
  %93 = mul i32 %92, -1640531535
  store i32 %93, ptr %69, align 4, !tbaa !13
  %94 = getelementptr inbounds nuw i8, ptr %.2.i, i64 16
  %.not80.i = icmp ugt ptr %94, %65
  br i1 %.not80.i, label %.loopexit.i, label %70

.loopexit.i:                                      ; preds = %70, %64
  %.173.i = phi ptr [ %.072.i, %64 ], [ %94, %70 ]
  %95 = icmp ult ptr %.173.i, %6
  br i1 %95, label %96, label %XXH_INLINE_XXH32_update.exit

96:                                               ; preds = %.loopexit.i
  %97 = getelementptr inbounds nuw i8, ptr %0, i64 24
  %98 = ptrtoint ptr %6 to i64
  %99 = ptrtoint ptr %.173.i to i64
  %100 = sub i64 %98, %99
  tail call void @llvm.memcpy.p0.p0.i64(ptr nonnull align 1 %97, ptr nonnull readonly align 1 %.173.i, i64 %100, i1 false)
  %101 = trunc i64 %100 to i32
  br label %.sink.split.i

.sink.split.i:                                    ; preds = %96, %22
  %.sink.i = phi i32 [ %26, %22 ], [ %101, %96 ]
  store i32 %.sink.i, ptr %17, align 4, !tbaa !12
  br label %XXH_INLINE_XXH32_update.exit

XXH_INLINE_XXH32_update.exit:                     ; preds = %3, %.loopexit.i, %.sink.split.i
  ret void
}